target datalayout = "e-m:e-p270:32:32-p271:32:32-p272:64:64-i64:64-i128:128-f80:128-n8:16:32:64-S128"
target triple = "x86_64-pc-linux-gnu"

@.str.37 = private unnamed_addr constant [1 x i8] zeroinitializer, align 1
@git_gettext_enabled = external global i32, align 4
@.str.168 = private unnamed_addr constant [17 x i8] c"%s thread failed\00", align 1
@.str.169 = private unnamed_addr constant [29 x i8] c"%s thread failed to join: %s\00", align 1

; Function Attrs: inlinehint nounwind uwtable
define internal i32 @const_error() #6 {
  ret i32 -1
}

; Function Attrs: inlinehint nounwind uwtable
define internal ptr @_(ptr noundef %0) #6 {
  %2 = alloca ptr, align 8
  %3 = alloca ptr, align 8
  store ptr %0, ptr %3, align 8, !tbaa !9
  %4 = load ptr, ptr %3, align 8, !tbaa !9
  %5 = load i8, ptr %4, align 1, !tbaa !106
  %6 = icmp ne i8 %5, 0
  br i1 %6, label %8, label %7

7:                                                ; preds = %1
  store ptr @.str.37, ptr %2, align 8
  br label %16

8:                                                ; preds = %1
  %9 = load i32, ptr @git_gettext_enabled, align 4, !tbaa !29
  %10 = icmp ne i32 %9, 0
  br i1 %10, label %13, label %11

11:                                               ; preds = %8
  %12 = load ptr, ptr %3, align 8, !tbaa !9
  store ptr %12, ptr %2, align 8
  br label %16

13:                                               ; preds = %8
  %14 = load ptr, ptr %3, align 8, !tbaa !9
  %15 = call ptr @dcgettext(ptr noundef null, ptr noundef %14, i32 noundef 5) #12
  store ptr %15, ptr %2, align 8
  br label %16

16:                                               ; preds = %13, %11, %7
  %17 = load ptr, ptr %2, align 8
  ret ptr %17
}

; Function Attrs: nounwind uwtable
define internal i32 @tloop_join(i64 noundef %0, ptr noundef %1) #0 {
  %3 = alloca i32, align 4
  %4 = alloca i64, align 8
  %5 = alloca ptr, align 8
  %6 = alloca i32, align 4
  %7 = alloca ptr, align 8
  %8 = alloca i32, align 4
  store i64 %0, ptr %4, align 8, !tbaa !62
  store ptr %1, ptr %5, align 8, !tbaa !9
  call void @llvm.lifetime.start.p0(i64 4, ptr %6) #12
  call void @llvm.lifetime.start.p0(i64 8, ptr %7) #12
  %9 = load i64, ptr %4, align 8, !tbaa !62
  %10 = call i32 @pthread_join(i64 noundef %9, ptr noundef %7)
  store i32 %10, ptr %6, align 4, !tbaa !29
  %11 = load ptr, ptr %7, align 8, !tbaa !156
  %12 = icmp ne ptr %11, null
  br i1 %12, label %18, label %13

13:                                               ; preds = %2
  %14 = call ptr @_(ptr noundef @.str.168)
  %15 = load ptr, ptr %5, align 8, !tbaa !9
  %16 = call i32 (ptr, ...) @error(ptr noundef %14, ptr noundef %15)
  %17 = call i32 @const_error()
  store i32 1, ptr %3, align 4
  store i32 1, ptr %8, align 4
  br label %29

18:                                               ; preds = %2
  %19 = load i32, ptr %6, align 4, !tbaa !29
  %20 = icmp ne i32 %19, 0
  br i1 %20, label %21, label %28

21:                                               ; preds = %18
  %22 = call ptr @_(ptr noundef @.str.169)
  %23 = load ptr, ptr %5, align 8, !tbaa !9
  %24 = load i32, ptr %6, align 4, !tbaa !29
  %25 = call ptr @strerror(i32 noundef %24) #12
  %26 = call i32 (ptr, ...) @error(ptr noundef %22, ptr noundef %23, ptr noundef %25)
  %27 = call i32 @const_error()
  store i32 1, ptr %3, align 4
  store i32 1, ptr %8, align 4
  br label %29

28:                                               ; preds = %18
  store i32 0, ptr %3, align 4
  store i32 1, ptr %8, align 4
  br label %29

29:                                               ; preds = %28, %21, %13
  call void @llvm.lifetime.end.p0(i64 8, ptr %7) #12
  call void @llvm.lifetime.end.p0(i64 4, ptr %6) #12
  %30 = load i32, ptr %3, align 4
  ret i32 %30
}