; Function Attrs: nounwind uwtable
define internal fastcc range(i32 0, 2) i32 @tloop_join(i64 noundef %0, ptr noundef %1) unnamed_addr #0 {
  %3 = alloca ptr, align 8
  call void @llvm.lifetime.start.p0(i64 8, ptr nonnull %3) #19
  %4 = call i32 @pthread_join(i64 noundef %0, ptr noundef nonnull %3) #19
  %5 = load ptr, ptr %3, align 8, !tbaa !135
  %.not = icmp eq ptr %5, null
  br i1 %.not, label %6, label %11

6:                                                ; preds = %2
  %7 = load i32, ptr @git_gettext_enabled, align 4, !tbaa !55
  %.not4.i = icmp eq i32 %7, 0
  br i1 %.not4.i, label %_.exit, label %8

8:                                                ; preds = %6
  %9 = call ptr @dcgettext(ptr noundef null, ptr noundef nonnull @.str.168, i32 noundef 5) #19
  br label %_.exit

_.exit:                                           ; preds = %6, %8
  %.0.i = phi ptr [ %9, %8 ], [ @.str.168, %6 ]
  %10 = call i32 (ptr, ...) @error(ptr noundef %.0.i, ptr noundef %1) #19
  br label %18

11:                                               ; preds = %2
  %.not6 = icmp eq i32 %4, 0
  br i1 %.not6, label %18, label %12

12:                                               ; preds = %11
  %13 = load i32, ptr @git_gettext_enabled, align 4, !tbaa !55
  %.not4.i7 = icmp eq i32 %13, 0
  br i1 %.not4.i7, label %_.exit9, label %14

14:                                               ; preds = %12
  %15 = call ptr @dcgettext(ptr noundef null, ptr noundef nonnull @.str.169, i32 noundef 5) #19
  br label %_.exit9

_.exit9:                                          ; preds = %12, %14
  %.0.i8 = phi ptr [ %15, %14 ], [ @.str.169, %12 ]
  %16 = call ptr @strerror(i32 noundef %4) #19
  %17 = call i32 (ptr, ...) @error(ptr noundef %.0.i8, ptr noundef %1, ptr noundef %16) #19
  br label %18

18:                                               ; preds = %11, %_.exit9, %_.exit
  %.0 = phi i32 [ 1, %_.exit9 ], [ 1, %_.exit ], [ 0, %11 ]
  call void @llvm.lifetime.end.p0(i64 8, ptr nonnull %3) #19
  ret i32 %.0
}